target datalayout = "e-m:e-p270:32:32-p271:32:32-p272:64:64-i64:64-i128:128-f80:128-n8:16:32:64-S128"
target triple = "x86_64-pc-linux-gnu"

%struct.sview_config_t = type { ptr, ptr, ptr, ptr, ptr, ptr, ptr, i16, i16, i8, i16, i32, i32, i32, i8, i32, i32, i32, i32, [10 x ptr], [10 x %struct.page_opts_t], [10 x i8], i16, i8, i8, i8, i8, i16, i32 }
%struct.page_opts_t = type { ptr, i8, ptr, ptr }
%struct.slurm_conf_t = type { i64, ptr, i16, ptr, ptr, ptr, ptr, ptr, i16, ptr, ptr, ptr, ptr, ptr, ptr, ptr, i16, ptr, ptr, ptr, ptr, i16, ptr, ptr, ptr, i64, ptr, ptr, ptr, ptr, i16, ptr, ptr, i16, i32, ptr, i32, ptr, i32, i32, ptr, ptr, i64, i64, ptr, i16, i16, ptr, i32, i32, ptr, i32, ptr, i32, i16, i16, i16, ptr, i16, i16, ptr, ptr, i32, i16, i16, ptr, i32, i16, ptr, ptr, ptr, ptr, i16, ptr, ptr, ptr, ptr, i32, ptr, ptr, ptr, ptr, i16, i16, ptr, i32, i32, i32, i16, i16, ptr, ptr, i16, ptr, ptr, i32, i32, i32, i32, i32, i64, i32, i32, i16, ptr, ptr, i32, ptr, ptr, ptr, i16, i32, ptr, ptr, i16, ptr, ptr, i32, i16, ptr, ptr, ptr, ptr, i32, i32, i16, i16, i32, ptr, i16, ptr, i32, i32, i32, i32, i32, i32, ptr, i16, ptr, ptr, i32, i16, ptr, i32, i16, i16, ptr, ptr, ptr, i16, ptr, ptr, ptr, ptr, i16, i16, ptr, i16, ptr, i16, ptr, i16, ptr, i16, ptr, ptr, ptr, ptr, i16, ptr, ptr, ptr, i32, ptr, i32, ptr, ptr, i16, ptr, ptr, i32, i16, ptr, ptr, i16, i16, ptr, i16, ptr, ptr, ptr, i32, ptr, i16, i16, ptr, ptr, ptr, ptr, ptr, ptr, ptr, ptr, i16, i32, i16, ptr, ptr, ptr, ptr, i32, ptr, ptr, ptr, i16, ptr, ptr, ptr, i16, ptr, i16, ptr, i16, i16, ptr }
%struct.job_info = type { ptr, i64, ptr, ptr, i32, ptr, i32, i32, i32, ptr, i32, ptr, i16, ptr, i64, i16, ptr, ptr, ptr, ptr, ptr, ptr, ptr, ptr, i16, i16, i16, double, i16, i32, i32, i32, ptr, ptr, i64, i32, ptr, i32, i64, i64, ptr, ptr, i32, ptr, ptr, ptr, ptr, i64, ptr, i64, ptr, i32, ptr, ptr, i32, i32, ptr, i32, i32, ptr, ptr, i32, i64, ptr, i16, ptr, i32, i32, ptr, ptr, ptr, ptr, ptr, i32, ptr, i16, i16, i16, i16, i16, i32, i32, i32, i16, ptr, ptr, i64, i16, i32, i64, i64, i64, i32, ptr, ptr, i32, ptr, i8, ptr, ptr, i32, i16, i64, i16, ptr, ptr, ptr, ptr, i16, i32, i16, i16, i64, i16, ptr, i32, ptr, ptr, ptr, i16, i64, i64, ptr, i32, i32, i16, ptr, ptr, ptr, ptr, ptr, ptr, ptr, ptr, i32, ptr, i32, ptr, ptr }
%struct.job_info_msg = type { i64, i64, i32, ptr }
%struct.slurmdb_cluster_rec = type { ptr, i16, i64, %struct.sockaddr_storage, ptr, i32, i16, ptr, i16, %struct.slurmdb_cluster_fed_t, i32, %union.pthread_mutex_t, ptr, ptr, ptr, i16, ptr, ptr }
%struct.sockaddr_storage = type { i16, [118 x i8], i64 }
%struct.slurmdb_cluster_fed_t = type { ptr, i32, ptr, ptr, ptr, i32, i8, i8 }
%union.pthread_mutex_t = type { %struct.__pthread_mutex_s }
%struct.__pthread_mutex_s = type { i32, i32, i32, i32, i32, i16, i16, %struct.__pthread_internal_list }
%struct.__pthread_internal_list = type { ptr, ptr }

@get_new_info_job.last = internal global i64 0, align 8
@get_new_info_job.changed = internal global i8 0, align 1
@get_new_info_job.last_flags = internal global i16 0, align 2
@g_job_info_ptr = external global ptr, align 8
@working_sview_config = external global %struct.sview_config_t, align 8
@cluster_flags = external global i32, align 4
@working_cluster_rec = external global ptr, align 8
@slurm_conf = external global %struct.slurm_conf_t, align 8

; Function Attrs: nounwind uwtable
define dso_local i32 @get_new_info_job(ptr noundef %0, i32 noundef %1) #0 {
  %3 = alloca ptr, align 8
  %4 = alloca i32, align 4
  %5 = alloca ptr, align 8
  %6 = alloca i16, align 2
  %7 = alloca i32, align 4
  %8 = alloca i32, align 4
  %9 = alloca i64, align 8
  %10 = alloca ptr, align 8
  %11 = alloca ptr, align 8
  store ptr %0, ptr %3, align 8
  store i32 %1, ptr %4, align 4
  call void @llvm.lifetime.start.p0(i64 8, ptr %5) #11
  store ptr null, ptr %5, align 8
  call void @llvm.lifetime.start.p0(i64 2, ptr %6) #11
  store i16 0, ptr %6, align 2
  call void @llvm.lifetime.start.p0(i64 4, ptr %7) #11
  store i32 1900, ptr %7, align 4
  call void @llvm.lifetime.start.p0(i64 4, ptr %8) #11
  call void @llvm.lifetime.start.p0(i64 8, ptr %9) #11
  %12 = call i64 @time(ptr noundef null) #11
  store i64 %12, ptr %9, align 8
  call void @llvm.lifetime.start.p0(i64 8, ptr %10) #11
  call void @llvm.lifetime.start.p0(i64 8, ptr %11) #11
  %13 = load ptr, ptr @g_job_info_ptr, align 8
  %14 = icmp ne ptr %13, null
  br i1 %14, label %15, label %38

15:                                               ; preds = %2
  %16 = load i32, ptr %4, align 4
  %17 = icmp ne i32 %16, 0
  br i1 %17, label %38, label %18

18:                                               ; preds = %15
  %19 = load i64, ptr %9, align 8
  %20 = load i64, ptr @get_new_info_job.last, align 8
  %21 = sub nsw i64 %19, %20
  %22 = load i16, ptr getelementptr inbounds nuw (%struct.sview_config_t, ptr @working_sview_config, i32 0, i32 22), align 2
  %23 = zext i16 %22 to i64
  %24 = icmp slt i64 %21, %23
  br i1 %24, label %25, label %38

25:                                               ; preds = %18
  %26 = load ptr, ptr %3, align 8
  %27 = load ptr, ptr %26, align 8
  %28 = load ptr, ptr @g_job_info_ptr, align 8
  %29 = icmp ne ptr %27, %28
  br i1 %29, label %30, label %31

30:                                               ; preds = %25
  store i32 0, ptr %7, align 4
  br label %31

31:                                               ; preds = %30, %25
  %32 = load ptr, ptr @g_job_info_ptr, align 8
  %33 = load ptr, ptr %3, align 8
  store ptr %32, ptr %33, align 8
  %34 = load i8, ptr @get_new_info_job.changed, align 1, !range !18, !noundef !19
  %35 = trunc i8 %34 to i1
  br i1 %35, label %36, label %37

36:                                               ; preds = %31
  store i32 0, ptr %7, align 4
  br label %37

37:                                               ; preds = %36, %31
  br label %162

38:                                               ; preds = %18, %15, %2
  %39 = load i64, ptr %9, align 8
  store i64 %39, ptr @get_new_info_job.last, align 8
  %40 = load i32, ptr @cluster_flags, align 4
  %41 = zext i32 %40 to i64
  %42 = and i64 %41, 2048
  %43 = icmp ne i64 %42, 0
  br i1 %43, label %44, label %49

44:                                               ; preds = %38
  %45 = load i16, ptr %6, align 2
  %46 = zext i16 %45 to i64
  %47 = or i64 %46, 64
  %48 = trunc i64 %47 to i16
  store i16 %48, ptr %6, align 2
  br label %49

49:                                               ; preds = %44, %38
  %50 = load i8, ptr getelementptr inbounds nuw (%struct.sview_config_t, ptr @working_sview_config, i32 0, i32 25), align 2, !range !18, !noundef !19
  %51 = trunc i8 %50 to i1
  br i1 %51, label %52, label %57

52:                                               ; preds = %49
  %53 = load i16, ptr %6, align 2
  %54 = zext i16 %53 to i64
  %55 = or i64 %54, 1
  %56 = trunc i64 %55 to i16
  store i16 %56, ptr %6, align 2
  br label %57

57:                                               ; preds = %52, %49
  %58 = load ptr, ptr @g_job_info_ptr, align 8
  %59 = icmp ne ptr %58, null
  br i1 %59, label %60, label %87

60:                                               ; preds = %57
  %61 = load i16, ptr %6, align 2
  %62 = zext i16 %61 to i32
  %63 = load i16, ptr @get_new_info_job.last_flags, align 2
  %64 = zext i16 %63 to i32
  %65 = icmp ne i32 %62, %64
  br i1 %65, label %66, label %69

66:                                               ; preds = %60
  %67 = load ptr, ptr @g_job_info_ptr, align 8
  %68 = getelementptr inbounds nuw %struct.job_info_msg, ptr %67, i32 0, i32 1
  store i64 0, ptr %68, align 8
  br label %69

69:                                               ; preds = %66, %60
  %70 = load ptr, ptr @g_job_info_ptr, align 8
  %71 = getelementptr inbounds nuw %struct.job_info_msg, ptr %70, i32 0, i32 1
  %72 = load i64, ptr %71, align 8
  %73 = load i16, ptr %6, align 2
  %74 = call i32 @slurm_load_jobs(i64 noundef %72, ptr noundef %5, i16 noundef zeroext %73)
  store i32 %74, ptr %7, align 4
  %75 = load i32, ptr %7, align 4
  %76 = icmp eq i32 %75, 0
  br i1 %76, label %77, label %79

77:                                               ; preds = %69
  %78 = load ptr, ptr @g_job_info_ptr, align 8
  call void @slurm_free_job_info_msg(ptr noundef %78)
  store i8 1, ptr @get_new_info_job.changed, align 1
  br label %86

79:                                               ; preds = %69
  %80 = call ptr @__errno_location() #12
  %81 = load i32, ptr %80, align 4
  %82 = icmp eq i32 %81, 1900
  br i1 %82, label %83, label %85

83:                                               ; preds = %79
  store i32 1900, ptr %7, align 4
  %84 = load ptr, ptr @g_job_info_ptr, align 8
  store ptr %84, ptr %5, align 8
  store i8 0, ptr @get_new_info_job.changed, align 1
  br label %85

85:                                               ; preds = %83, %79
  br label %86

86:                                               ; preds = %85, %77
  br label %90

87:                                               ; preds = %57
  store ptr null, ptr %5, align 8
  %88 = load i16, ptr %6, align 2
  %89 = call i32 @slurm_load_jobs(i64 noundef 0, ptr noundef %5, i16 noundef zeroext %88)
  store i32 %89, ptr %7, align 4
  store i8 1, ptr @get_new_info_job.changed, align 1
  br label %90

90:                                               ; preds = %87, %86
  %91 = load ptr, ptr @working_cluster_rec, align 8
  %92 = icmp ne ptr %91, null
  br i1 %92, label %93, label %103

93:                                               ; preds = %90
  %94 = load ptr, ptr @working_cluster_rec, align 8
  %95 = getelementptr inbounds nuw %struct.slurmdb_cluster_rec, ptr %94, i32 0, i32 12
  %96 = load ptr, ptr %95, align 8
  %97 = icmp ne ptr %96, null
  br i1 %97, label %98, label %103

98:                                               ; preds = %93
  %99 = load ptr, ptr @working_cluster_rec, align 8
  %100 = getelementptr inbounds nuw %struct.slurmdb_cluster_rec, ptr %99, i32 0, i32 12
  %101 = load ptr, ptr %100, align 8
  %102 = call ptr @xstrdup(ptr noundef %101)
  store ptr %102, ptr %11, align 8
  br label %106

103:                                              ; preds = %93, %90
  %104 = load ptr, ptr getelementptr inbounds nuw (%struct.slurm_conf_t, ptr @slurm_conf, i32 0, i32 31), align 8
  %105 = call ptr @xstrdup(ptr noundef %104)
  store ptr %105, ptr %11, align 8
  br label %106

106:                                              ; preds = %103, %98
  %107 = load i32, ptr %7, align 4
  %108 = icmp eq i32 %107, 0
  br i1 %108, label %109, label %148

109:                                              ; preds = %106
  store i32 0, ptr %8, align 4
  %110 = load ptr, ptr %5, align 8
  %111 = getelementptr inbounds nuw %struct.job_info_msg, ptr %110, i32 0, i32 3
  %112 = load ptr, ptr %111, align 8
  store ptr %112, ptr %10, align 8
  br label %113

113:                                              ; preds = %142, %109
  %114 = load i32, ptr %8, align 4
  %115 = load ptr, ptr %5, align 8
  %116 = getelementptr inbounds nuw %struct.job_info_msg, ptr %115, i32 0, i32 2
  %117 = load i32, ptr %116, align 8
  %118 = icmp ult i32 %114, %117
  br i1 %118, label %119, label %147

119:                                              ; preds = %113
  %120 = load ptr, ptr %10, align 8
  %121 = getelementptr inbounds nuw %struct.job_info, ptr %120, i32 0, i32 74
  %122 = load ptr, ptr %121, align 8
  %123 = icmp ne ptr %122, null
  br i1 %123, label %124, label %141

124:                                              ; preds = %119
  %125 = load ptr, ptr %10, align 8
  %126 = getelementptr inbounds nuw %struct.job_info, ptr %125, i32 0, i32 18
  %127 = load ptr, ptr %126, align 8
  %128 = icmp ne ptr %127, null
  br i1 %128, label %129, label %141

129:                                              ; preds = %124
  %130 = load ptr, ptr %10, align 8
  %131 = getelementptr inbounds nuw %struct.job_info, ptr %130, i32 0, i32 18
  %132 = load ptr, ptr %131, align 8
  %133 = load ptr, ptr %11, align 8
  %134 = call i32 @xstrcmp(ptr noundef %132, ptr noundef %133)
  %135 = icmp ne i32 %134, 0
  br i1 %135, label %136, label %141

136:                                              ; preds = %129
  %137 = load ptr, ptr %10, align 8
  %138 = getelementptr inbounds nuw %struct.job_info, ptr %137, i32 0, i32 74
  %139 = load ptr, ptr %138, align 8
  %140 = getelementptr inbounds i32, ptr %139, i64 0
  store i32 -1, ptr %140, align 4
  br label %141

141:                                              ; preds = %136, %129, %124, %119
  br label %142

142:                                              ; preds = %141
  %143 = load i32, ptr %8, align 4
  %144 = add nsw i32 %143, 1
  store i32 %144, ptr %8, align 4
  %145 = load ptr, ptr %10, align 8
  %146 = getelementptr inbounds nuw %struct.job_info, ptr %145, i32 1
  store ptr %146, ptr %10, align 8
  br label %113, !llvm.loop !23

147:                                              ; preds = %113
  br label %148

148:                                              ; preds = %147, %106
  call void @slurm_xfree(ptr noundef %11)
  %149 = load i16, ptr %6, align 2
  store i16 %149, ptr @get_new_info_job.last_flags, align 2
  %150 = load ptr, ptr %5, align 8
  store ptr %150, ptr @g_job_info_ptr, align 8
  %151 = load ptr, ptr @g_job_info_ptr, align 8
  %152 = icmp ne ptr %151, null
  br i1 %152, label %153, label %159

153:                                              ; preds = %148
  %154 = load ptr, ptr %3, align 8
  %155 = load ptr, ptr %154, align 8
  %156 = load ptr, ptr @g_job_info_ptr, align 8
  %157 = icmp ne ptr %155, %156
  br i1 %157, label %158, label %159

158:                                              ; preds = %153
  store i32 0, ptr %7, align 4
  br label %159

159:                                              ; preds = %158, %153, %148
  %160 = load ptr, ptr @g_job_info_ptr, align 8
  %161 = load ptr, ptr %3, align 8
  store ptr %160, ptr %161, align 8
  br label %162

162:                                              ; preds = %159, %37
  %163 = load i32, ptr %7, align 4
  call void @llvm.lifetime.end.p0(i64 8, ptr %11) #11
  call void @llvm.lifetime.end.p0(i64 8, ptr %10) #11
  call void @llvm.lifetime.end.p0(i64 8, ptr %9) #11
  call void @llvm.lifetime.end.p0(i64 4, ptr %8) #11
  call void @llvm.lifetime.end.p0(i64 4, ptr %7) #11
  call void @llvm.lifetime.end.p0(i64 2, ptr %6) #11
  call void @llvm.lifetime.end.p0(i64 8, ptr %5) #11
  ret i32 %163
}