; Function Attrs: nounwind uwtable
define dso_local i32 @get_new_info_job(ptr noundef captures(none) %0, i32 noundef %1) local_unnamed_addr #0 {
  %3 = alloca ptr, align 8
  %4 = alloca ptr, align 8
  call void @llvm.lifetime.start.p0(i64 8, ptr nonnull %3) #16
  store ptr null, ptr %3, align 8
  %5 = tail call i64 @time(ptr noundef null) #16
  call void @llvm.lifetime.start.p0(i64 8, ptr nonnull %4) #16
  %6 = load ptr, ptr @g_job_info_ptr, align 8
  %7 = icmp eq ptr %6, null
  %8 = icmp ne i32 %1, 0
  %or.cond = or i1 %8, %7
  br i1 %or.cond, label %22, label %9

9:                                                ; preds = %2
  %10 = load i64, ptr @get_new_info_job.last, align 8
  %11 = sub nsw i64 %5, %10
  %12 = load i16, ptr getelementptr inbounds nuw (i8, ptr @working_sview_config, i64 506), align 2
  %13 = zext i16 %12 to i64
  %14 = icmp slt i64 %11, %13
  br i1 %14, label %20, label %.thread

.thread:                                          ; preds = %9
  store i64 %5, ptr @get_new_info_job.last, align 8
  %15 = load i32, ptr @cluster_flags, align 4
  %16 = trunc i32 %15 to i16
  %17 = lshr i16 %16, 5
  %spec.select4652 = and i16 %17, 64
  %18 = load i8, ptr getelementptr inbounds nuw (i8, ptr @working_sview_config, i64 510), align 2, !range !18, !noundef !19
  %19 = zext nneg i8 %18 to i16
  %.153 = or disjoint i16 %spec.select4652, %19
  br label %28

20:                                               ; preds = %9
  %21 = load ptr, ptr %0, align 8
  %.not = icmp eq ptr %21, %6
  %spec.select = select i1 %.not, i32 1900, i32 0
  store ptr %6, ptr %0, align 8
  %.b35 = load i1, ptr @get_new_info_job.changed, align 1
  %spec.select48 = select i1 %.b35, i32 0, i32 %spec.select
  br label %81

22:                                               ; preds = %2
  store i64 %5, ptr @get_new_info_job.last, align 8
  %23 = load i32, ptr @cluster_flags, align 4
  %24 = trunc i32 %23 to i16
  %25 = lshr i16 %24, 5
  %spec.select46 = and i16 %25, 64
  %26 = load i8, ptr getelementptr inbounds nuw (i8, ptr @working_sview_config, i64 510), align 2, !range !18, !noundef !19
  %27 = zext nneg i8 %26 to i16
  %.1 = or disjoint i16 %spec.select46, %27
  br i1 %7, label %43, label %28

28:                                               ; preds = %.thread, %22
  %.154 = phi i16 [ %.153, %.thread ], [ %.1, %22 ]
  %29 = load i16, ptr @get_new_info_job.last_flags, align 2
  %.not38 = icmp eq i16 %.154, %29
  %.phi.trans.insert = getelementptr inbounds nuw i8, ptr %6, i64 8
  br i1 %.not38, label %._crit_edge, label %30

._crit_edge:                                      ; preds = %28
  %.pre = load i64, ptr %.phi.trans.insert, align 8
  br label %31

30:                                               ; preds = %28
  store i64 0, ptr %.phi.trans.insert, align 8
  br label %31

31:                                               ; preds = %._crit_edge, %30
  %32 = phi i64 [ %.pre, %._crit_edge ], [ 0, %30 ]
  %33 = call i32 @slurm_load_jobs(i64 noundef %32, ptr noundef nonnull %3, i16 noundef zeroext %.154) #16
  %34 = icmp eq i32 %33, 0
  br i1 %34, label %35, label %37

35:                                               ; preds = %31
  %36 = load ptr, ptr @g_job_info_ptr, align 8
  call void @slurm_free_job_info_msg(ptr noundef %36) #16
  br label %.sink.split

37:                                               ; preds = %31
  %38 = tail call ptr @__errno_location() #17
  %39 = load i32, ptr %38, align 4
  %40 = icmp eq i32 %39, 1900
  br i1 %40, label %41, label %45

41:                                               ; preds = %37
  %42 = load ptr, ptr @g_job_info_ptr, align 8
  store ptr %42, ptr %3, align 8
  br label %.sink.split

43:                                               ; preds = %22
  store ptr null, ptr %3, align 8
  %44 = call i32 @slurm_load_jobs(i64 noundef 0, ptr noundef nonnull %3, i16 noundef zeroext %.1) #16
  br label %.sink.split

.sink.split:                                      ; preds = %43, %41, %35
  %.sink = phi i1 [ true, %35 ], [ false, %41 ], [ true, %43 ]
  %.155.ph = phi i16 [ %.154, %35 ], [ %.154, %41 ], [ %.1, %43 ]
  %.2.ph = phi i32 [ 0, %35 ], [ 1900, %41 ], [ %44, %43 ]
  store i1 %.sink, ptr @get_new_info_job.changed, align 1
  br label %45

45:                                               ; preds = %.sink.split, %37
  %.155 = phi i16 [ %.154, %37 ], [ %.155.ph, %.sink.split ]
  %.2 = phi i32 [ %33, %37 ], [ %.2.ph, %.sink.split ]
  %46 = load ptr, ptr @working_cluster_rec, align 8
  %.not39 = icmp eq ptr %46, null
  br i1 %.not39, label %50, label %47

47:                                               ; preds = %45
  %48 = getelementptr inbounds nuw i8, ptr %46, i64 280
  %49 = load ptr, ptr %48, align 8
  %.not40 = icmp eq ptr %49, null
  br i1 %.not40, label %50, label %52

50:                                               ; preds = %47, %45
  %51 = load ptr, ptr getelementptr inbounds nuw (i8, ptr @slurm_conf, i64 248), align 8
  br label %52

52:                                               ; preds = %47, %50
  %.sink56 = phi ptr [ %51, %50 ], [ %49, %47 ]
  %53 = call ptr @xstrdup(ptr noundef %.sink56) #16
  store ptr %53, ptr %4, align 8
  %54 = icmp eq i32 %.2, 0
  br i1 %54, label %55, label %.loopexit

55:                                               ; preds = %52
  %56 = load ptr, ptr %3, align 8
  %57 = getelementptr inbounds nuw i8, ptr %56, i64 16
  %58 = load i32, ptr %57, align 8
  %.not51 = icmp eq i32 %58, 0
  br i1 %.not51, label %.loopexit, label %.lr.ph.preheader

.lr.ph.preheader:                                 ; preds = %55
  %59 = getelementptr inbounds nuw i8, ptr %56, i64 24
  %60 = load ptr, ptr %59, align 8
  br label %.lr.ph

.lr.ph:                                           ; preds = %.lr.ph.preheader, %70
  %.050 = phi ptr [ %72, %70 ], [ %60, %.lr.ph.preheader ]
  %.02449 = phi i32 [ %71, %70 ], [ 0, %.lr.ph.preheader ]
  %61 = getelementptr inbounds nuw i8, ptr %.050, i64 528
  %62 = load ptr, ptr %61, align 8
  %.not43 = icmp eq ptr %62, null
  br i1 %.not43, label %70, label %63

63:                                               ; preds = %.lr.ph
  %64 = getelementptr inbounds nuw i8, ptr %.050, i64 136
  %65 = load ptr, ptr %64, align 8
  %.not44 = icmp eq ptr %65, null
  br i1 %.not44, label %70, label %66

66:                                               ; preds = %63
  %67 = call i32 @xstrcmp(ptr noundef nonnull %65, ptr noundef %53) #16
  %.not45 = icmp eq i32 %67, 0
  br i1 %.not45, label %70, label %68

68:                                               ; preds = %66
  %69 = load ptr, ptr %61, align 8
  store i32 -1, ptr %69, align 4
  br label %70

70:                                               ; preds = %.lr.ph, %63, %66, %68
  %71 = add nuw nsw i32 %.02449, 1
  %72 = getelementptr inbounds nuw i8, ptr %.050, i64 968
  %73 = load ptr, ptr %3, align 8
  %74 = getelementptr inbounds nuw i8, ptr %73, i64 16
  %75 = load i32, ptr %74, align 8
  %76 = icmp ult i32 %71, %75
  br i1 %76, label %.lr.ph, label %.loopexit, !llvm.loop !24

.loopexit:                                        ; preds = %70, %55, %52
  call void @slurm_xfree(ptr noundef nonnull %4) #16
  store i16 %.155, ptr @get_new_info_job.last_flags, align 2
  %77 = load ptr, ptr %3, align 8
  store ptr %77, ptr @g_job_info_ptr, align 8
  %.not41 = icmp eq ptr %77, null
  br i1 %.not41, label %80, label %78

78:                                               ; preds = %.loopexit
  %79 = load ptr, ptr %0, align 8
  %.not42 = icmp eq ptr %79, %77
  %spec.select47 = select i1 %.not42, i32 %.2, i32 0
  br label %80

80:                                               ; preds = %78, %.loopexit
  %.3 = phi i32 [ %.2, %.loopexit ], [ %spec.select47, %78 ]
  store ptr %77, ptr %0, align 8
  br label %81

81:                                               ; preds = %20, %80
  %.126 = phi i32 [ %.3, %80 ], [ %spec.select48, %20 ]
  call void @llvm.lifetime.end.p0(i64 8, ptr nonnull %4) #16
  call void @llvm.lifetime.end.p0(i64 8, ptr nonnull %3) #16
  ret i32 %.126
}